target datalayout = "e-m:e-p270:32:32-p271:32:32-p272:64:64-i64:64-i128:128-f80:128-n8:16:32:64-S128"
target triple = "x86_64-unknown-linux-gnu"

%"class.node::MutexBase" = type { %union.pthread_mutex_t }
%union.pthread_mutex_t = type { %struct.__pthread_mutex_s }
%struct.__pthread_mutex_s = type { i32, i32, i32, i32, i32, i16, i16, %struct.__pthread_internal_list }
%struct.__pthread_internal_list = type { ptr, ptr }
%"class.std::map" = type { %"class.std::_Rb_tree" }
%"class.std::_Rb_tree" = type { %"struct.std::_Rb_tree<int, std::pair<const int, long>, std::_Select1st<std::pair<const int, long>>, std::less<int>>::_Rb_tree_impl" }
%"struct.std::_Rb_tree<int, std::pair<const int, long>, std::_Select1st<std::pair<const int, long>>, std::less<int>>::_Rb_tree_impl" = type { %"struct.std::_Rb_tree_key_compare", %"struct.std::_Rb_tree_header" }
%"struct.std::_Rb_tree_key_compare" = type { %"struct.std::less" }
%"struct.std::less" = type { i8 }
%"struct.std::_Rb_tree_header" = type { %"struct.std::_Rb_tree_node_base", i64 }
%"struct.std::_Rb_tree_node_base" = type { i32, ptr, ptr, ptr }
%"struct.node::AssertionInfo" = type { ptr, ptr, ptr }
%"class.node::MutexBase<node::LibuvMutexTraits>::ScopedLock" = type { ptr }

@_ZN4node12_GLOBAL__N_121handled_signals_mutexE = internal global %"class.node::MutexBase" zeroinitializer, align 8
@_ZN4node12_GLOBAL__N_115handled_signalsE = internal global %"class.std::map" zeroinitializer, align 8
@_ZZN4node26DecreaseSignalHandlerCountEiE4args = internal constant %"struct.node::AssertionInfo" { ptr @.str, ptr @.str.3, ptr @.str.4 }, align 8

; Function Attrs: mustprogress nounwind uwtable
define linkonce_odr dso_local void @_ZN4node16LibuvMutexTraits12mutex_unlockEP15pthread_mutex_t(ptr noundef %mutex) #4 comdat align 2 {
entry:
  %mutex.addr = alloca ptr, align 8
  store ptr %mutex, ptr %mutex.addr, align 8
  %0 = load ptr, ptr %mutex.addr, align 8
  call void @uv_mutex_unlock(ptr noundef %0)
  ret void
}

; Function Attrs: mustprogress nounwind uwtable
define linkonce_odr dso_local void @_ZN4node16LibuvMutexTraits10mutex_lockEP15pthread_mutex_t(ptr noundef %mutex) #4 comdat align 2 {
entry:
  %mutex.addr = alloca ptr, align 8
  store ptr %mutex, ptr %mutex.addr, align 8
  %0 = load ptr, ptr %mutex.addr, align 8
  call void @uv_mutex_lock(ptr noundef %0)
  ret void
}

; Function Attrs: mustprogress nounwind uwtable
define linkonce_odr dso_local void @_ZN4node9MutexBaseINS_16LibuvMutexTraitsEE10ScopedLockD2Ev(ptr noundef nonnull align 8 dereferenceable(8) %this) unnamed_addr #4 comdat align 2 {
entry:
  %this.addr = alloca ptr, align 8
  store ptr %this, ptr %this.addr, align 8
  %this1 = load ptr, ptr %this.addr, align 8
  %mutex_ = getelementptr inbounds %"class.node::MutexBase<node::LibuvMutexTraits>::ScopedLock", ptr %this1, i32 0, i32 0
  %0 = load ptr, ptr %mutex_, align 8
  %mutex_2 = getelementptr inbounds %"class.node::MutexBase", ptr %0, i32 0, i32 0
  call void @_ZN4node16LibuvMutexTraits12mutex_unlockEP15pthread_mutex_t(ptr noundef %mutex_2)
  ret void
}

; Function Attrs: mustprogress nounwind uwtable
define linkonce_odr dso_local noundef i64 @_ZNSt3mapIilSt4lessIiESaISt4pairIKilEEE5eraseERS3_(ptr noundef nonnull align 8 dereferenceable(48) %this, ptr noundef nonnull align 4 dereferenceable(4) %__x) #4 comdat align 2 {
entry:
  %this.addr = alloca ptr, align 8
  %__x.addr = alloca ptr, align 8
  store ptr %this, ptr %this.addr, align 8
  store ptr %__x, ptr %__x.addr, align 8
  %this1 = load ptr, ptr %this.addr, align 8
  %_M_t = getelementptr inbounds %"class.std::map", ptr %this1, i32 0, i32 0
  %0 = load ptr, ptr %__x.addr, align 8
  %call = call noundef i64 @_ZNSt8_Rb_treeIiSt4pairIKilESt10_Select1stIS2_ESt4lessIiESaIS2_EE5eraseERS1_(ptr noundef nonnull align 8 dereferenceable(48) %_M_t, ptr noundef nonnull align 4 dereferenceable(4) %0)
  ret i64 %call
}

; Function Attrs: mustprogress nounwind uwtable
define linkonce_odr dso_local void @_ZN4node9MutexBaseINS_16LibuvMutexTraitsEE10ScopedLockC2ERKS2_(ptr noundef nonnull align 8 dereferenceable(8) %this, ptr noundef nonnull align 8 dereferenceable(40) %mutex) unnamed_addr #4 comdat align 2 {
entry:
  %this.addr = alloca ptr, align 8
  %mutex.addr = alloca ptr, align 8
  store ptr %this, ptr %this.addr, align 8
  store ptr %mutex, ptr %mutex.addr, align 8
  %this1 = load ptr, ptr %this.addr, align 8
  %mutex_ = getelementptr inbounds %"class.node::MutexBase<node::LibuvMutexTraits>::ScopedLock", ptr %this1, i32 0, i32 0
  %0 = load ptr, ptr %mutex.addr, align 8
  store ptr %0, ptr %mutex_, align 8
  %mutex_2 = getelementptr inbounds %"class.node::MutexBase<node::LibuvMutexTraits>::ScopedLock", ptr %this1, i32 0, i32 0
  %1 = load ptr, ptr %mutex_2, align 8
  %mutex_3 = getelementptr inbounds %"class.node::MutexBase", ptr %1, i32 0, i32 0
  call void @_ZN4node16LibuvMutexTraits10mutex_lockEP15pthread_mutex_t(ptr noundef %mutex_3)
  ret void
}

; Function Attrs: mustprogress nounwind uwtable
define dso_local void @_ZN4node26DecreaseSignalHandlerCountEi(i32 noundef %signum) #4 {
entry:
  %signum.addr = alloca i32, align 4
  %lock = alloca %"class.node::MutexBase<node::LibuvMutexTraits>::ScopedLock", align 8
  %new_handler_count = alloca i64, align 8
  store i32 %signum, ptr %signum.addr, align 4
  call void @_ZN4node9MutexBaseINS_16LibuvMutexTraitsEE10ScopedLockC2ERKS2_(ptr noundef nonnull align 8 dereferenceable(8) %lock, ptr noundef nonnull align 8 dereferenceable(40) @_ZN4node12_GLOBAL__N_121handled_signals_mutexE)
  %call = call noundef nonnull align 8 dereferenceable(8) ptr @_ZNSt3mapIilSt4lessIiESaISt4pairIKilEEEixERS3_(ptr noundef nonnull align 8 dereferenceable(48) @_ZN4node12_GLOBAL__N_115handled_signalsE, ptr noundef nonnull align 4 dereferenceable(4) %signum.addr)
  %0 = load i64, ptr %call, align 8
  %dec = add nsw i64 %0, -1
  store i64 %dec, ptr %call, align 8
  store i64 %dec, ptr %new_handler_count, align 8
  br label %do.body

do.body:                                          ; preds = %entry
  %1 = load i64, ptr %new_handler_count, align 8
  %cmp = icmp sge i64 %1, 0
  %lnot = xor i1 %cmp, true
  %lnot1 = xor i1 %lnot, true
  %lnot2 = xor i1 %lnot1, true
  br i1 %lnot2, label %if.then, label %if.end

if.then:                                          ; preds = %do.body
  br label %do.body3

do.body3:                                         ; preds = %if.then
  call void @_ZN4node6AssertERKNS_13AssertionInfoE(ptr noundef nonnull align 8 dereferenceable(24) @_ZZN4node26DecreaseSignalHandlerCountEiE4args)
  call void @abort() #13
  unreachable

do.cond:                                          ; No predecessors!
  br label %do.end

do.end:                                           ; preds = %do.cond
  br label %if.end

if.end:                                           ; preds = %do.end, %do.body
  br label %do.cond4

do.cond4:                                         ; preds = %if.end
  br label %do.end5

do.end5:                                          ; preds = %do.cond4
  %2 = load i64, ptr %new_handler_count, align 8
  %cmp6 = icmp eq i64 %2, 0
  br i1 %cmp6, label %if.then7, label %if.end9

if.then7:                                         ; preds = %do.end5
  %call8 = call noundef i64 @_ZNSt3mapIilSt4lessIiESaISt4pairIKilEEE5eraseERS3_(ptr noundef nonnull align 8 dereferenceable(48) @_ZN4node12_GLOBAL__N_115handled_signalsE, ptr noundef nonnull align 4 dereferenceable(4) %signum.addr)
  br label %if.end9

if.end9:                                          ; preds = %if.then7, %do.end5
  call void @_ZN4node9MutexBaseINS_16LibuvMutexTraitsEE10ScopedLockD2Ev(ptr noundef nonnull align 8 dereferenceable(8) %lock) #3
  ret void
}