; Function Attrs: mustprogress nounwind uwtable
define dso_local void @_ZN4node26DecreaseSignalHandlerCountEi(i32 noundef %signum) local_unnamed_addr #3 {
entry:
  %signum.addr = alloca i32, align 4
  store i32 %signum, ptr %signum.addr, align 4
  tail call void @uv_mutex_lock(ptr noundef nonnull @_ZN4node12_GLOBAL__N_121handled_signals_mutexE) #16
  %call = call noundef nonnull align 8 dereferenceable(8) ptr @_ZNSt3mapIilSt4lessIiESaISt4pairIKilEEEixERS3_(ptr noundef nonnull align 8 dereferenceable(48) @_ZN4node12_GLOBAL__N_115handled_signalsE, ptr noundef nonnull align 4 dereferenceable(4) %signum.addr)
  %0 = load i64, ptr %call, align 8
  %dec = add nsw i64 %0, -1
  store i64 %dec, ptr %call, align 8
  %cmp = icmp slt i64 %0, 1
  br i1 %cmp, label %do.body3, label %do.end5

do.body3:                                         ; preds = %entry
  call void @_ZN4node6AssertERKNS_13AssertionInfoE(ptr noundef nonnull align 8 dereferenceable(24) @_ZZN4node26DecreaseSignalHandlerCountEiE4args) #16
  call void @abort() #17
  unreachable

do.end5:                                          ; preds = %entry
  %cmp6 = icmp eq i64 %dec, 0
  br i1 %cmp6, label %if.then7, label %if.end9

if.then7:                                         ; preds = %do.end5
  %call.i = call noundef i64 @_ZNSt8_Rb_treeIiSt4pairIKilESt10_Select1stIS2_ESt4lessIiESaIS2_EE5eraseERS1_(ptr noundef nonnull align 8 dereferenceable(48) @_ZN4node12_GLOBAL__N_115handled_signalsE, ptr noundef nonnull align 4 dereferenceable(4) %signum.addr)
  br label %if.end9

if.end9:                                          ; preds = %if.then7, %do.end5
  call void @uv_mutex_unlock(ptr noundef nonnull @_ZN4node12_GLOBAL__N_121handled_signals_mutexE) #16
  ret void
}